target datalayout = "e-m:e-p270:32:32-p271:32:32-p272:64:64-i64:64-i128:128-f80:128-n8:16:32:64-S128"
target triple = "x86_64-pc-linux-gnu"

@.str = private unnamed_addr constant [2 x i8] c"r\00", align 1
@.str.1 = private unnamed_addr constant [31 x i8] c"../openssl/crypto/ts/ts_conf.c\00", align 1
@__func__.TS_CONF_load_cert = private unnamed_addr constant [18 x i8] c"TS_CONF_load_cert\00", align 1
@.str.9 = private unnamed_addr constant [12 x i8] c"signer_cert\00", align 1
@__func__.ts_CONF_lookup_fail = private unnamed_addr constant [20 x i8] c"ts_CONF_lookup_fail\00", align 1
@.str.26 = private unnamed_addr constant [7 x i8] c"%s::%s\00", align 1

; Function Attrs: nounwind uwtable
define ptr @TS_CONF_load_cert(ptr noundef %0) #0 {
  %2 = alloca ptr, align 8
  %3 = alloca ptr, align 8
  %4 = alloca ptr, align 8
  store ptr %0, ptr %2, align 8, !tbaa !3
  call void @llvm.lifetime.start.p0(i64 8, ptr %3) #7
  store ptr null, ptr %3, align 8, !tbaa !8
  call void @llvm.lifetime.start.p0(i64 8, ptr %4) #7
  store ptr null, ptr %4, align 8, !tbaa !10
  %5 = load ptr, ptr %2, align 8, !tbaa !3
  %6 = call ptr @BIO_new_file(ptr noundef %5, ptr noundef @.str)
  store ptr %6, ptr %3, align 8, !tbaa !8
  %7 = icmp eq ptr %6, null
  br i1 %7, label %8, label %9

8:                                                ; preds = %1
  br label %12

9:                                                ; preds = %1
  %10 = load ptr, ptr %3, align 8, !tbaa !8
  %11 = call ptr @PEM_read_bio_X509_AUX(ptr noundef %10, ptr noundef null, ptr noundef null, ptr noundef null)
  store ptr %11, ptr %4, align 8, !tbaa !10
  br label %12

12:                                               ; preds = %9, %8
  %13 = load ptr, ptr %4, align 8, !tbaa !10
  %14 = icmp eq ptr %13, null
  br i1 %14, label %15, label %16

15:                                               ; preds = %12
  call void @ERR_new()
  call void @ERR_set_debug(ptr noundef @.str.1, i32 noundef 62, ptr noundef @__func__.TS_CONF_load_cert)
  call void (i32, i32, ptr, ...) @ERR_set_error(i32 noundef 47, i32 noundef 137, ptr noundef null)
  br label %16

16:                                               ; preds = %15, %12
  %17 = load ptr, ptr %3, align 8, !tbaa !8
  %18 = call i32 @BIO_free(ptr noundef %17)
  %19 = load ptr, ptr %4, align 8, !tbaa !10
  call void @llvm.lifetime.end.p0(i64 8, ptr %4) #7
  call void @llvm.lifetime.end.p0(i64 8, ptr %3) #7
  ret ptr %19
}

; Function Attrs: nounwind uwtable
define internal void @ts_CONF_lookup_fail(ptr noundef %0, ptr noundef %1) #0 {
  %3 = alloca ptr, align 8
  %4 = alloca ptr, align 8
  store ptr %0, ptr %3, align 8, !tbaa !3
  store ptr %1, ptr %4, align 8, !tbaa !3
  call void @ERR_new()
  call void @ERR_set_debug(ptr noundef @.str.1, i32 noundef 127, ptr noundef @__func__.ts_CONF_lookup_fail)
  %5 = load ptr, ptr %3, align 8, !tbaa !3
  %6 = load ptr, ptr %4, align 8, !tbaa !3
  call void (i32, i32, ptr, ...) @ERR_set_error(i32 noundef 47, i32 noundef 136, ptr noundef @.str.26, ptr noundef %5, ptr noundef %6)
  ret void
}

; Function Attrs: nounwind uwtable
define i32 @TS_CONF_set_signer_cert(ptr noundef %0, ptr noundef %1, ptr noundef %2, ptr noundef %3) #0 {
  %5 = alloca ptr, align 8
  %6 = alloca ptr, align 8
  %7 = alloca ptr, align 8
  %8 = alloca ptr, align 8
  %9 = alloca i32, align 4
  %10 = alloca ptr, align 8
  store ptr %0, ptr %5, align 8, !tbaa !31
  store ptr %1, ptr %6, align 8, !tbaa !3
  store ptr %2, ptr %7, align 8, !tbaa !3
  store ptr %3, ptr %8, align 8, !tbaa !33
  call void @llvm.lifetime.start.p0(i64 4, ptr %9) #7
  store i32 0, ptr %9, align 4, !tbaa !16
  call void @llvm.lifetime.start.p0(i64 8, ptr %10) #7
  store ptr null, ptr %10, align 8, !tbaa !10
  %11 = load ptr, ptr %7, align 8, !tbaa !3
  %12 = icmp eq ptr %11, null
  br i1 %12, label %13, label %22

13:                                               ; preds = %4
  %14 = load ptr, ptr %5, align 8, !tbaa !31
  %15 = load ptr, ptr %6, align 8, !tbaa !3
  %16 = call ptr @NCONF_get_string(ptr noundef %14, ptr noundef %15, ptr noundef @.str.9)
  store ptr %16, ptr %7, align 8, !tbaa !3
  %17 = load ptr, ptr %7, align 8, !tbaa !3
  %18 = icmp eq ptr %17, null
  br i1 %18, label %19, label %21

19:                                               ; preds = %13
  %20 = load ptr, ptr %6, align 8, !tbaa !3
  call void @ts_CONF_lookup_fail(ptr noundef %20, ptr noundef @.str.9)
  br label %34

21:                                               ; preds = %13
  br label %22

22:                                               ; preds = %21, %4
  %23 = load ptr, ptr %7, align 8, !tbaa !3
  %24 = call ptr @TS_CONF_load_cert(ptr noundef %23)
  store ptr %24, ptr %10, align 8, !tbaa !10
  %25 = icmp eq ptr %24, null
  br i1 %25, label %26, label %27

26:                                               ; preds = %22
  br label %34

27:                                               ; preds = %22
  %28 = load ptr, ptr %8, align 8, !tbaa !33
  %29 = load ptr, ptr %10, align 8, !tbaa !10
  %30 = call i32 @TS_RESP_CTX_set_signer_cert(ptr noundef %28, ptr noundef %29)
  %31 = icmp ne i32 %30, 0
  br i1 %31, label %33, label %32

32:                                               ; preds = %27
  br label %34

33:                                               ; preds = %27
  store i32 1, ptr %9, align 4, !tbaa !16
  br label %34

34:                                               ; preds = %33, %32, %26, %19
  %35 = load ptr, ptr %10, align 8, !tbaa !10
  call void @X509_free(ptr noundef %35)
  %36 = load i32, ptr %9, align 4, !tbaa !16
  call void @llvm.lifetime.end.p0(i64 8, ptr %10) #7
  call void @llvm.lifetime.end.p0(i64 4, ptr %9) #7
  ret i32 %36
}