; Function Attrs: nounwind uwtable
define range(i32 0, 2) i32 @TS_CONF_set_signer_cert(ptr noundef %0, ptr noundef %1, ptr noundef %2, ptr noundef %3) local_unnamed_addr #0 {
  %5 = icmp eq ptr %2, null
  br i1 %5, label %6, label %10

6:                                                ; preds = %4
  %7 = tail call ptr @NCONF_get_string(ptr noundef %0, ptr noundef %1, ptr noundef nonnull @.str.9) #4
  %8 = icmp eq ptr %7, null
  br i1 %8, label %9, label %10

9:                                                ; preds = %6
  tail call void @ERR_new() #4
  tail call void @ERR_set_debug(ptr noundef nonnull @.str.1, i32 noundef 127, ptr noundef nonnull @__func__.ts_CONF_lookup_fail) #4
  tail call void (i32, i32, ptr, ...) @ERR_set_error(i32 noundef 47, i32 noundef 136, ptr noundef nonnull @.str.26, ptr noundef %1, ptr noundef nonnull @.str.9) #4
  br label %20

10:                                               ; preds = %6, %4
  %.010 = phi ptr [ %7, %6 ], [ %2, %4 ]
  %11 = tail call ptr @BIO_new_file(ptr noundef nonnull %.010, ptr noundef nonnull @.str) #4
  %12 = icmp eq ptr %11, null
  br i1 %12, label %TS_CONF_load_cert.exit.thread, label %13

13:                                               ; preds = %10
  %14 = tail call ptr @PEM_read_bio_X509_AUX(ptr noundef nonnull %11, ptr noundef null, ptr noundef null, ptr noundef null) #4
  %15 = icmp eq ptr %14, null
  br i1 %15, label %TS_CONF_load_cert.exit.thread, label %17

TS_CONF_load_cert.exit.thread:                    ; preds = %10, %13
  tail call void @ERR_new() #4
  tail call void @ERR_set_debug(ptr noundef nonnull @.str.1, i32 noundef 62, ptr noundef nonnull @__func__.TS_CONF_load_cert) #4
  tail call void (i32, i32, ptr, ...) @ERR_set_error(i32 noundef 47, i32 noundef 137, ptr noundef null) #4
  %16 = tail call i32 @BIO_free(ptr noundef %11) #4
  br label %20

17:                                               ; preds = %13
  %18 = tail call i32 @BIO_free(ptr noundef nonnull %11) #4
  %19 = tail call i32 @TS_RESP_CTX_set_signer_cert(ptr noundef %3, ptr noundef nonnull %14) #4
  %.not = icmp ne i32 %19, 0
  %spec.select = zext i1 %.not to i32
  br label %20

20:                                               ; preds = %TS_CONF_load_cert.exit.thread, %17, %9
  %.09 = phi i32 [ 0, %9 ], [ %spec.select, %17 ], [ 0, %TS_CONF_load_cert.exit.thread ]
  %.0 = phi ptr [ null, %9 ], [ %14, %17 ], [ null, %TS_CONF_load_cert.exit.thread ]
  tail call void @X509_free(ptr noundef %.0) #4
  ret i32 %.09
}